; Function Attrs: mustprogress uwtable
define void @_ZN26MainWindowPreferencesFrame39on_foStyleLastOpenedRadioButton_toggledEb(ptr nocapture noundef nonnull readonly align 8 dereferenceable(144) %0, i1 noundef zeroext %1) local_unnamed_addr #0 align 2 {
  br i1 %1, label %3, label %7

3:                                                ; preds = %2
  %4 = getelementptr inbounds i8, ptr %0, i64 72
  %5 = load ptr, ptr %4, align 8
  %6 = tail call i32 @prefs_set_enum_value(ptr noundef %5, i32 noundef 0, i32 noundef 1)
  br label %7

7:                                                ; preds = %3, %2
  ret void
}